; Function Attrs: mustprogress uwtable
define noundef ptr @_ZN9grpc_core5Party11Participant21MakeNonOwningWakeableEPS0_(ptr nocapture noundef nonnull align 8 dereferenceable(32) %this, ptr noundef %party) local_unnamed_addr #5 align 2 personality ptr @__gxx_personality_v0 {
entry:
  %handle_ = getelementptr inbounds i8, ptr %this, i64 8
  %0 = load ptr, ptr %handle_, align 8
  %cmp = icmp eq ptr %0, null
  br i1 %cmp, label %invoke.cont, label %if.end

invoke.cont:                                      ; preds = %entry
  %call = tail call noalias noundef nonnull dereferenceable(32) ptr @_Znwm(i64 noundef 32) #24
  store ptr getelementptr inbounds ({ [6 x ptr] }, ptr @_ZTVN9grpc_core5Party6HandleE, i64 0, i32 0, i64 2), ptr %call, align 8
  %refs_.i = getelementptr inbounds i8, ptr %call, i64 8
  store i64 2, ptr %refs_.i, align 8
  %mu_.i = getelementptr inbounds i8, ptr %call, i64 16
  store i64 0, ptr %mu_.i, align 8
  %party_.i = getelementptr inbounds i8, ptr %call, i64 24
  store ptr %party, ptr %party_.i, align 8
  store ptr %call, ptr %handle_, align 8
  br label %return

if.end:                                           ; preds = %entry
  %refs_.i1 = getelementptr inbounds i8, ptr %0, i64 8
  %1 = atomicrmw add ptr %refs_.i1, i64 1 monotonic, align 8
  %2 = load ptr, ptr %handle_, align 8
  br label %return

return:                                           ; preds = %if.end, %invoke.cont
  %retval.0 = phi ptr [ %call, %invoke.cont ], [ %2, %if.end ]
  ret ptr %retval.0
}